; Function Attrs: mustprogress nofree norecurse nosync nounwind memory(argmem: readwrite) uwtable
define void @_ZN17double_conversion6Bignum5ClampEv(ptr noundef nonnull align 4 captures(none) dereferenceable(516) %0) local_unnamed_addr #4 align 2 {
  %.pr = load i16, ptr %0, align 4, !tbaa !3
  %2 = icmp sgt i16 %.pr, 0
  br i1 %2, label %.lr.ph, label %.critedge

.lr.ph:                                           ; preds = %1
  %3 = getelementptr inbounds nuw i8, ptr %0, i64 4
  br label %4

4:                                                ; preds = %.lr.ph, %12
  %5 = phi i16 [ %.pr, %.lr.ph ], [ %13, %12 ]
  %6 = zext nneg i16 %5 to i64
  %7 = add nuw nsw i64 %6, 4294967295
  %8 = and i64 %7, 4294967295
  %9 = getelementptr inbounds nuw [128 x i32], ptr %3, i64 0, i64 %8
  %10 = load i32, ptr %9, align 4, !tbaa !9
  %11 = icmp eq i32 %10, 0
  br i1 %11, label %12, label %.critedge.thread

12:                                               ; preds = %4
  %13 = add nsw i16 %5, -1
  store i16 %13, ptr %0, align 4, !tbaa !3
  %14 = icmp sgt i16 %5, 1
  br i1 %14, label %4, label %.critedge.thread3, !llvm.loop !17

.critedge:                                        ; preds = %1
  %15 = icmp eq i16 %.pr, 0
  br i1 %15, label %.critedge.thread3, label %.critedge.thread

.critedge.thread3:                                ; preds = %12, %.critedge
  %16 = getelementptr inbounds nuw i8, ptr %0, i64 2
  store i16 0, ptr %16, align 2, !tbaa !8
  br label %.critedge.thread

.critedge.thread:                                 ; preds = %4, %.critedge.thread3, %.critedge
  ret void
}